target datalayout = "e-m:e-p270:32:32-p271:32:32-p272:64:64-i64:64-i128:128-f80:128-n8:16:32:64-S128"
target triple = "x86_64-pc-linux-gnu"

@.str.2 = private unnamed_addr constant [100 x i8] c"generated/home/dtcxzyw/WorkSpace/Projects/compilers/llvm-opt-benchmark/bench/hdf5/hdf5/src/H5Fint.c\00", align 1
@H5E_FILE_g = external global i64, align 8
@H5E_BADITER_g = external global i64, align 8
@.str.63 = private unnamed_addr constant [24 x i8] c"H5F__get_objects failed\00", align 1
@__func__.H5F_get_obj_ids = private unnamed_addr constant [16 x i8] c"H5F_get_obj_ids\00", align 1

; Function Attrs: nounwind uwtable
define i32 @H5F_get_obj_ids(ptr noundef %0, i32 noundef %1, i64 noundef %2, ptr noundef %3, i1 noundef zeroext %4, ptr noundef %5) #0 {
  %7 = alloca ptr, align 8
  %8 = alloca i32, align 4
  %9 = alloca i64, align 8
  %10 = alloca ptr, align 8
  %11 = alloca i8, align 1
  %12 = alloca ptr, align 8
  %13 = alloca i32, align 4
  %14 = alloca i8, align 1
  store ptr %0, ptr %7, align 8
  store i32 %1, ptr %8, align 4
  store i64 %2, ptr %9, align 8
  store ptr %3, ptr %10, align 8
  %15 = zext i1 %4 to i8
  store i8 %15, ptr %11, align 1
  store ptr %5, ptr %12, align 8
  store i32 0, ptr %13, align 4
  store i8 0, ptr %14, align 1
  %16 = load ptr, ptr %7, align 8
  %17 = load i32, ptr %8, align 4
  %18 = load i64, ptr %9, align 8
  %19 = load ptr, ptr %10, align 8
  %20 = load i8, ptr %11, align 1
  %21 = trunc i8 %20 to i1
  %22 = load ptr, ptr %12, align 8
  %23 = call i32 @H5F__get_objects(ptr noundef %16, i32 noundef %17, i64 noundef %18, ptr noundef %19, i1 noundef zeroext %21, ptr noundef %22)
  store i32 %23, ptr %13, align 4
  %24 = icmp slt i32 %23, 0
  br i1 %24, label %25, label %40

25:                                               ; preds = %6
  br label %26

26:                                               ; preds = %25
  br label %27

27:                                               ; preds = %26
  br label %28

28:                                               ; preds = %27
  %29 = load i64, ptr @H5E_FILE_g, align 8
  %30 = load i64, ptr @H5E_BADITER_g, align 8
  %31 = call i32 (ptr, ptr, i32, i64, i64, ptr, ...) @H5E_printf_stack(ptr noundef @.str.2, ptr noundef @__func__.H5F_get_obj_ids, i32 noundef 524, i64 noundef %29, i64 noundef %30, ptr noundef @.str.63)
  br label %32

32:                                               ; preds = %28
  store i8 1, ptr %14, align 1
  %33 = load i8, ptr %14, align 1
  %34 = trunc i8 %33 to i1
  %35 = zext i1 %34 to i8
  store i8 %35, ptr %14, align 1
  br label %36

36:                                               ; preds = %32
  br label %37

37:                                               ; preds = %36
  store i32 -1, ptr %13, align 4
  br label %41

38:                                               ; No predecessors!
  br label %39

39:                                               ; preds = %38
  br label %40

40:                                               ; preds = %39, %6
  br label %41

41:                                               ; preds = %40, %37
  %42 = load i32, ptr %13, align 4
  ret i32 %42
}