; Function Attrs: nounwind uwtable
define range(i32 -1, 1) i32 @H5F_get_obj_ids(ptr noundef %0, i32 noundef %1, i64 noundef %2, ptr noundef %3, i1 noundef zeroext %4, ptr nocapture noundef writeonly %5) local_unnamed_addr #0 {
  %7 = tail call fastcc i32 @H5F__get_objects(ptr noundef %0, i32 noundef %1, i64 noundef %2, ptr noundef %3, i1 noundef zeroext %4, ptr noundef %5)
  %8 = icmp slt i32 %7, 0
  br i1 %8, label %9, label %13

9:                                                ; preds = %6
  %10 = load i64, ptr @H5E_FILE_g, align 8
  %11 = load i64, ptr @H5E_BADITER_g, align 8
  %12 = tail call i32 (ptr, ptr, i32, i64, i64, ptr, ...) @H5E_printf_stack(ptr noundef nonnull @.str.2, ptr noundef nonnull @__func__.H5F_get_obj_ids, i32 noundef 524, i64 noundef %10, i64 noundef %11, ptr noundef nonnull @.str.63) #22
  br label %13

13:                                               ; preds = %6, %9
  %.0 = phi i32 [ -1, %9 ], [ 0, %6 ]
  ret i32 %.0
}